(dp1
S'output'
p2
S"<type 'exceptions.NameError'> name 'message' is not defined"
p3
sS'layer'
p4
S'/Users/anthonynguyen/Desktop/CMPS-183/web2py/applications/slugtutor183/views/default/index.html'
p5
sS'code'
p6
S'response.write(\'<html>\\n\\n<head>\\n\\t<meta charset="utf-8">\\n\\t<meta http-equiv="X-UA-Compatible" content="IE=edge,chrome=1">\\n\\t<meta name="viewport" content="width=device-width, initial-scale=1.0" />\\n\\t<meta name="apple-mobile-web-app-capable" content="yes" />\\n\\n\\t<!-- <link href="\', escape=False)\nresponse.write(URL(\'static\',\'css/calendar.css\'))\nresponse.write(\'" rel="stylesheet" type="text/css" /> -->\\n\\t<link rel="stylesheet" href="https://maxcdn.bootstrapcdn.com/bootstrap/4.0.0/css/bootstrap.min.css" integrity="sha384-Gn5384xqQ1aoWXA+058RXPxPg6fy4IWvTNh0E263XmFcJlSAwiGgFAW/dAiS6JXm" crossorigin="anonymous">\\n\\t<link href="\', escape=False)\nresponse.write(URL(\'static\',\'css/web2py.css\'))\nresponse.write(\'" rel="stylesheet" type="text/css" />\\n\\t<link href="\', escape=False)\nresponse.write(URL(\'static\',\'css/myapp.css\'))\nresponse.write(\'" rel="stylesheet" type="text/css" />\\n\\t<link rel="stylesheet" href="\', escape=False)\nresponse.write(URL(\'static\', \'font-awesome-4.6.3/css/font-awesome.min.css\'))\nresponse.write(\'"> \', escape=False)\nresponse.write(\'<script type="text/javascript"><!--\\n    // These variables are used by the web2py_ajax_init function in web2py_ajax.js (which is loaded below).\\n    var w2p_ajax_confirm_message = "\', escape=False)\nresponse.write(T(\'Are you sure you want to delete this object?\'))\nresponse.write(\'";\\n    var w2p_ajax_disable_with_message = "\', escape=False)\nresponse.write(T(\'Working...\'))\nresponse.write(\'";\\n    var w2p_ajax_date_format = "\', escape=False)\nresponse.write(T(\'%Y-%m-%d\'))\nresponse.write(\'";\\n    var w2p_ajax_datetime_format = "\', escape=False)\nresponse.write(T(\'%Y-%m-%d %H:%M:%S\'))\nresponse.write(\'";\\n    var ajax_error_500 = \\\'\', escape=False)\nresponse.write(T.M(\'An error occured, please [[reload %s]] the page\') % URL(args=request.args, vars=request.get_vars))\nresponse.write("\'\\n    //--></script>\\n", escape=False)\nresponse.files.insert(0,URL(\'static\',\'js/jquery.js\'))\nresponse.files.insert(1,URL(\'static\',\'css/calendar.css\'))\nresponse.files.insert(2,URL(\'static\',\'js/calendar.js\'))\nresponse.files.insert(3,URL(\'static\',\'js/web2py.js\'))\nresponse.include_meta()\nresponse.include_files()\nresponse.write(\'\\n\', escape=False)\nresponse.write(\'\\n</head>\\n\\n<body>\\n\\t<nav class="navbar navbar-expand-lg navbar-light bg-light">\\n\\t\\t<a class="navbar-brand" href="#">\\n      <img src="\', escape=False)\nresponse.write(URL(\'static\', \'images/transparent_small_logo2.png\'))\nresponse.write(\'">\\n    </a>\\n\\t\\t<button class="navbar-toggler" type="button" data-toggle="collapse" data-target="#navbarSupportedContent" aria-controls="navbarSupportedContent" aria-expanded="false" aria-label="Toggle navigation">\\n      <span class="navbar-toggler-icon"></span>\\n    </button> \', escape=False)\nnav = auth.navbar(mode=\'bare\')\nresponse.write(\'\\n\\t\\t<div class="collapse navbar-collapse" id="navbarSupportedContent">\\n\\t\\t\\t<ul class="navbar-nav mr-auto">\\n\\t\\t\\t\\t<li class="nav-item">\\n\\t\\t\\t\\t\\t<a class="nav-link" href="\', escape=False)\nresponse.write(URL(\'default\', \'index.html\'))\nresponse.write(\'">home</a>\\n\\t\\t\\t\\t</li>\\n\\t\\t\\t\\t<li class="nav-item">\\n\\t\\t\\t\\t\\t<a class="nav-link" href="\', escape=False)\nresponse.write(URL(\'default\', \'profile.html\'))\nresponse.write(\'">profile</a>\\n\\t\\t\\t\\t</li>\\t\\t\\t\\t\\n\\t\\t\\t\\t<li class="nav-item">\\n\\t\\t\\t\\t\\t<a class="nav-link" href="\', escape=False)\nresponse.write(URL(\'default\', \'add_class.html\'))\nresponse.write(\'">add_class</a>\\n\\t\\t\\t\\t</li>\\n\\t\\t\\t\\t\', escape=False)\nfor key in nav.keys():\n    response.write(\' \', escape=False)\n    if key is not "user" and key is not "prefix":\n        response.write(\'\\n\\t\\t\\t\\t<li class="nav-item">\\n\\t\\t\\t\\t\\t<a class="nav-link" href="\', escape=False)\n        response.write(nav[key])\n        response.write(\'">\', escape=False)\n        response.write(key)\n        response.write(\'</a>\\n\\t\\t\\t\\t</li>\\n\\t\\t\\t\\t\', escape=False)\n        pass\n    response.write(\' \', escape=False)\n    pass\nresponse.write(\'\\n\\t\\t\\t</ul>\\n\\n\\t\\t\\t<form class="form-inline my-2 my-lg-0">\\n\\t\\t\\t\\t<input class="form-control mr-sm-2" type="search" placeholder="Search" aria-label="Search">\\n\\t\\t\\t\\t<button class="btn btn-outline-success my-2 my-sm-0" type="submit">Search</button>\\n\\t\\t\\t</form>\\n\\t\\t</div>\\n\\t</nav>\\n\\n\\t<main>\\n\\t\\t\', escape=False)\nif response.flash:\n    response.write(\'\\n\\t\\t<div class="alert alert-primary alert-dismissible" role="alert">\', escape=False)\n    response.write(response.flash)\n    response.write(\'\\n\\t\\t\\t<button type="button" class="close" data-dismiss="alert" aria-label="Close">\\n          <span aria-hidden="true">&times;</span>\\n        </button>\\n\\t\\t</div>\\n\\t\\t\', escape=False)\n    pass\nresponse.write(\' \', escape=False)\nresponse.write(\' \', escape=False)\nresponse.write(\'\\n<script>\\n\\tvar search_tutors_url = "\', escape=False)\nresponse.write(URL(\'api\', \'search_tutors\'))\nresponse.write(\'";\\n\\tvar api_get_classes_url = "\', escape=False)\nresponse.write(URL(\'api\', \'get_classes\'))\nresponse.write(\'";\\n\\tvar api_get_search_url = "\', escape=False)\nresponse.write(URL(\'api\', \'get_search\'))\nresponse.write(\'";\\n\\tvar api_add_post_url = "\', escape=False)\nresponse.write(URL(\'api\', \'add_post\'))\nresponse.write(\'";\\n\\tvar api_get_tutorlist_url = "\', escape=False)\nresponse.write(URL(\'api\', \'get_tutorlist\'))\nresponse.write(\'";\\n\\tvar message = \\\' \\\' ; \\n</script>\\n\', escape=False)\nresponse.write(\'\\n\\n<div class="main_content">\\n\\n\\t<div id="vue-div" class="display:none">\\n\\n\\n\\n\\t\\t<!-- Here goes your main HTML code. -->\\n\\t\\t<div v-if="page==\\\'tutor_result_page\\\'">\\n\\n\\t\\t\\t<li v-for="value in class_list">\\n\\t\\t\\t\\t${ value } $ { value.leader }\\n\\t\\t\\t</li>\\n\\n\\t\\t\\t\\n\\n\\t\\t\\t<li v-for="post in postings">\\n\\t\\t\\t\\t${ post }\\n\\t\\t\\t</li>\\n\\n\\t\\t\\t<button @click="goto(\\\'main\\\')"> go home </button>\\n\\t\\t</div>\\n\\t\\t<transition name="fade">\\n\\t\\t\\t<div v-if="page==\\\'main\\\'" class="container-fluid">\\n\\t\\t\\t\\t<div class="jumbotron">\\n\\t\\t\\t\\t\\t<!-- <a class="btn btn-primary btn-lg" href="#" role="button">Learn more</a> -->\\n\\n\\n\\t\\t\\t\\t\\t\', escape=False)\nif auth.user is None:\n    response.write(\'\\n\\t\\t\\t\\t\\t<h1 class="display-4">Learn More. Earn More.</h1>\\n\\t\\t\\t\\t\\t\\n\\t\\t\\t\\t\\n\\t\\t\\t\\t<ul>\\n\\t\\t\\t\\t\\t\\n\\t\\t\\t\\t<li v-for="t in tutorlist">\\n\\t\\t\\t\\t\\t${t}\\n\\t\\t\\t\\t\\t<input v-model="message" placeholder="edit me">\\n\\t\\t\\t\\t\\t\\t\\t<p>Message is: \', escape=False)\n    message\n    response.write(\'</p>\\n\\t\\t\\t\\t\\t\\n\\t\\t\\t\\t</li>\\n\\t\\t\\t</ul>\\n\\n\\t\\t\\t\\t\\t<hr class="my-4">\\n\\t\\t\\t\\t\\t<p class="lead">Slugtutor is the easiest way for students to find the best tutors for their academic needs.</p>\\n\\t\\t\\t\\t\\t<p class="lead">Excel in a class? Interested in helping others and earning some extra cash? Sign in to add your availibility and expertise.</p>\\n\\t\\t\\t\\t\\t\', escape=False)\nelse:\n    response.write(\'\\n\\t\\t\\t\\t\\t<h1 class="display-4">Welcome back \', escape=False)\n    response.write(auth.user["first_name"])\n    response.write(\'</h1>\\n\\t\\t\\t\\t\\t<hr class="my-4"> \', escape=False)\n    pass\nresponse.write(\'\\n\\n\\t\\t\\t\\t\\t<div class="row">\\n\\n\\t\\t\\t\\t\\t\\t<div class="offset-md-3 col-md-6 col-sm-12">\\n\\t\\t\\t\\t\\t\\t\\t<form>\\n\\t\\t\\t\\t\\t\\t\\t\\t<div class="form-group">\\n\\t\\t\\t\\t\\t\\t\\t\\t\\t<h4 class="mx-2 lead">Search for classes to find tutors who can help you:</h4>\\n\\t\\t\\t\\t\\t\\t\\t\\t\\t<h6 class="mx-2">Find me help for...</h6>\\n\\n\\n\\t\\t\\t\\t\\t\\t\\t\\t\\t<!-- <select v-model="selected">\\n\\t\\t\\t\\t\\t\\t\\t\\t\\t<option v-for="class in class_dept" v-bind:value="class.value"> ${class.text} </option>\\n\\t\\t\\t\\t\\t\\t\\t\\t</select> !-->\\n\\n\\t\\t\\t\\t\\t\\t\\t\\t\\t<!--<input class="w-80" v-model="student_search" v placeholder="CMPS 183">!-->\\n\\n\\t\\t\\t\\t\\t\\t\\t\\t\\t<input class="w-80" v-model="selected" v-model="student_search" v placeholder="CMPS">\\n\\t\\t\\t\\t\\t\\t\\t\\t\\t<input class="w-80" v-model="student_search"  v placeholder=" 183">\\n\\n\\t\\t\\t\\t\\t\\t\\t\\t\\t<button type="button" class="btn btn-outline-success w-20 my-sm-0" v-on:click="search_for_tutors(selected,student_search)">Search</button>\\n\\t\\t\\t\\t\\t\\t\\t\\t</div>\\n\\t\\t\\t\\t\\t\\t\\t</form>\\n\\t\\t\\t\\t\\t\\t\\t<form>\\n\\t\\t\\t\\t\\t\\t\\t\\t<div class="form-group">\\n\\t\\t\\t\\t\\t\\t\\t\\t\\t<h4 class="mx-2 lead">Interested in becoming a tutor? Create a posting so students can find you.</h4>\\n\\t\\t\\t\\t\\t\\t\\t\\t\\t<input v-model="tutor_input" placeholder="CMPS 183">\\n\\t\\t\\t\\t\\t\\t\\t\\t\\t<button class="btn btn-outline-success w-20 my-sm-0" v-on:click="add_post(tutor_input)">Create</button>\\n\\t\\t\\t\\t\\t\\t\\t\\t</div>\\n\\t\\t\\t\\t\\t\\t\\t</form>\\n\\t\\t\\t\\t\\t\\t\\t<div class="form-group">\\n\\t\\t\\t\\t\\t\\t\\t\\t<h6 class="mx-2">Quote of the day:</h6>\\n\\t\\t\\t\\t\\t\\t\\t\\t<div id="new-quote">\\n\\n\\t\\t\\t\\t\\t\\t\\t\\t\\t<p>${ quoteText }</p> <i>${ quoteAuthor }</i>\\n\\t\\t\\t\\t\\t\\t\\t\\t\\t<!--                  <button class="btn btn-outline-success  my-sm-0" v-on:click="getQuote">New Quote</button>-->\\n\\t\\t\\t\\t\\t\\t\\t\\t</div>\\n\\t\\t\\t\\t\\t\\t\\t</div>\\n\\n\\t\\t\\t\\t\\t\\t\\t<div class="col-md-3">\\n\\n\\t\\t\\t\\t\\t\\t\\t</div>\\n\\t\\t\\t\\t\\t\\t</div>\\n\\t\\t\\t\\t\\t</div>\\n\\t\\t\\t\\t</div>\\n\\t\\t\\t</div>\\n\\t\\t</transition>\\n\\t\\t<div v-if="page==\\\'create_post_page\\\'">\\n\\t\\t\\t<form>\\n\\t\\t\\t\\t<div class="form-row">\\n\\t\\t\\t\\t\\t<div class="form-group col-md-6">\\n\\t\\t\\t\\t\\t\\t<label for="inputTitle">Title</label>\\n\\t\\t\\t\\t\\t\\t<input type="text" class="form-control" id="inputTitle" placeholder="Web Applications">\\n\\t\\t\\t\\t\\t</div>\\n\\t\\t\\t\\t\\t<div class="form-group col-md-6">\\n\\t\\t\\t\\t\\t\\t<label for="inputClassNum">Class Number</label>\\n\\t\\t\\t\\t\\t\\t<input type="number" class="form-control" id="inputClassNumber" placeholder="183">\\n\\t\\t\\t\\t\\t</div>\\n\\t\\t\\t\\t</div>\\n\\t\\t\\t\\t<div class="form-group">\\n\\t\\t\\t\\t\\t<label for="inputDayOf">Day</label>\\n\\t\\t\\t\\t\\t<input type="datetime" class="form-control" id="inputDayOf">\\n\\t\\t\\t\\t</div>\\n\\t\\t\\t\\t<div class="form-group">\\n\\t\\t\\t\\t\\t<label for="inputStartTime">Time</label>\\n\\t\\t\\t\\t\\t<input type="text" class="form-control" id="inputStarTime">\\n\\t\\t\\t\\t</div>\\n\\t\\t\\t\\t\\n\\t\\t\\t\\t<div class="form-row">\\n\\t\\t\\t\\t\\t<div class="form-group col-md-6">\\n\\t\\t\\t\\t\\t\\t<label for="inputGroupOrInd"></label>\\n\\t\\t\\t\\t\\t\\t<input type="radio" id="one" value="One" v-model="picked">\\n\\t\\t\\t\\t\\t\\t<label for="one">Individual</label>\\n\\t\\t\\t\\t\\t\\t<br>\\n\\t\\t\\t\\t\\t\\t<input type="radio" id="two" value="Two" v-model="picked">\\n\\t\\t\\t\\t\\t\\t<label for="two">Group</label>\\n\\t\\t\\t\\t\\t\\t<br>\\n\\t\\t\\t\\t\\t</div>\\n\\t\\t\\t\\t</div>\\n\\t\\t\\t\\t<button type="submit" class="btn btn-primary">Submit</button>\\n\\t\\t\\t</form>\\n\\t\\t</div>\\n\\t</div>\\n</div>\\n\\n\\n\\n<script src="https://cdnjs.cloudflare.com/ajax/libs/gsap/1.20.3/TweenMax.min.js"></script>\\n\\n\\n<script src="\', escape=False)\nresponse.write(URL(\'static\', \'js/default_index.js\'))\nresponse.write(\'"></script>\\n\', escape=False)\nresponse.write(\'\\n\\t</main>\\n\\t<footer>\\n\\t\\t<!--\\n    <div class="row">\\n      <div class="col-md-12 col-lg-12 col-sm-12 center">\\n        <div class="center">\\n          <a class="fa fa-facebook" href="https://www.facebook.com/sharer/sharer.php?u={url}"></a>\\n          <a class="fa fa-twitter" href="https://twitter.com/home?status={url}"></a>\\n          <a class="fa fa-google" href="https://plus.google.com/share?url={url}"></a>\\n        </div>\\n      </div>\\n    </div>\\n-->\\n\\n\\t</footer>\\n\\t<script src="\', escape=False)\nresponse.write(URL(\'static\', \'js/jquery.js\'))\nresponse.write(\'"></script>\\n\\t<script src="https://cdnjs.cloudflare.com/ajax/libs/popper.js/1.12.9/umd/popper.min.js" integrity="sha384-ApNbgh9B+Y1QKtv3Rn7W3mgPxhU9K/ScQsAP7hUibX39j7fakFPskvXusvfa0b4Q" crossorigin="anonymous"></script>\\n\\t<script src="https://maxcdn.bootstrapcdn.com/bootstrap/4.0.0/js/bootstrap.min.js" integrity="sha384-JZR6Spejh4U02d8jOt6vLEHfe/JQGiRRSQQxSfFWpi1MquVdAyjUar5+76PVCmYl" crossorigin="anonymous"></script>\\n</body>\\n<script src="\', escape=False)\nresponse.write(URL(\'static\',\'js/marked.min.js\'))\nresponse.write(\'"></script>\\n<script src="\', escape=False)\nresponse.write(URL(\'static\',\'js/vue.min.js\'))\nresponse.write(\'"></script>\\n<script src="https://unpkg.com/vue-router@2.0.0/dist/vue-router.js"></script>\\n\\n\', escape=False)\nresponse.write("\\n<script>\\n\\tjQuery(\'.social a\').each(function() {\\n\\t\\tvar t = jQuery(this);\\n\\t\\tt.attr(\'href\', t.attr(\'href\').replace(\'{url}\', encodeURIComponent(window.location.href)));\\n\\t});\\n\\n</script>\\n\\n</html>\\n", escape=False)'
p7
sS'snapshot'
p8
(dp9
S'exception'
p10
(dp11
S'__getslice__'
p12
S"<method-wrapper '__getslice__' of exceptions.NameError object>"
p13
sS'__str__'
p14
S"<method-wrapper '__str__' of exceptions.NameError object>"
p15
sS'__reduce__'
p16
S'<built-in method __reduce__ of exceptions.NameError object>'
p17
sS'__dict__'
p18
S'{}'
p19
sS'message'
p20
S'"name \'message\' is not defined"'
p21
sS'__sizeof__'
p22
S'<built-in method __sizeof__ of exceptions.NameError object>'
p23
sS'__init__'
p24
S"<method-wrapper '__init__' of exceptions.NameError object>"
p25
sS'__setattr__'
p26
S"<method-wrapper '__setattr__' of exceptions.NameError object>"
p27
sS'__reduce_ex__'
p28
S'<built-in method __reduce_ex__ of exceptions.NameError object>'
p29
sS'__new__'
p30
S'<built-in method __new__ of type object>'
p31
sS'__format__'
p32
S'<built-in method __format__ of exceptions.NameError object>'
p33
sS'__class__'
p34
S"<type 'exceptions.NameError'>"
p35
sS'__doc__'
p36
S"'Name not found globally.'"
p37
sS'__getitem__'
p38
S"<method-wrapper '__getitem__' of exceptions.NameError object>"
p39
sS'__setstate__'
p40
S'<built-in method __setstate__ of exceptions.NameError object>'
p41
sS'__getattribute__'
p42
S"<method-wrapper '__getattribute__' of exceptions.NameError object>"
p43
sS'args'
p44
S'("name \'message\' is not defined",)'
p45
sS'__subclasshook__'
p46
S'<built-in method __subclasshook__ of type object>'
p47
sS'__unicode__'
p48
S'<built-in method __unicode__ of exceptions.NameError object>'
p49
sS'__delattr__'
p50
S"<method-wrapper '__delattr__' of exceptions.NameError object>"
p51
sS'__repr__'
p52
S"<method-wrapper '__repr__' of exceptions.NameError object>"
p53
sS'__hash__'
p54
S"<method-wrapper '__hash__' of exceptions.NameError object>"
p55
ssS'evalue'
p56
S"name 'message' is not defined"
p57
sS'request'
p58
cgluon.html
XML_unpickle
p59
(S'sn^\x00\x00<div><table><tr><td style="font-weight:bold;vertical-align:top;">ajax</td><td style="vertical-align:top;">:</td><td><div>False</div></td></tr><tr><td style="font-weight:bold;vertical-align:top;">application</td><td style="vertical-align:top;">:</td><td><div>slugtutor183</div></td></tr><tr><td style="font-weight:bold;vertical-align:top;">args</td><td style="vertical-align:top;">:</td><td><div><table></table></div></td></tr><tr><td style="font-weight:bold;vertical-align:top;">cid</td><td style="vertical-align:top;">:</td><td><div>None</div></td></tr><tr><td style="font-weight:bold;vertical-align:top;">client</td><td style="vertical-align:top;">:</td><td><div>127.0.0.1</div></td></tr><tr><td style="font-weight:bold;vertical-align:top;">controller</td><td style="vertical-align:top;">:</td><td><div>default</div></td></tr><tr><td style="font-weight:bold;vertical-align:top;">cookies</td><td style="vertical-align:top;">:</td><td><div><table><tr><td style="font-weight:bold;vertical-align:top;">session_id_admin</td><td style="vertical-align:top;">:</td><td><div>127.0.0.1-5887b352-2be2-4296-9f87-c2a54a7f8924<table><tr><td style="font-weight:bold;vertical-align:top;">comment</td><td style="vertical-align:top;">:</td><td><div></div></td></tr><tr><td style="font-weight:bold;vertical-align:top;">domain</td><td style="vertical-align:top;">:</td><td><div></div></td></tr><tr><td style="font-weight:bold;vertical-align:top;">expires</td><td style="vertical-align:top;">:</td><td><div></div></td></tr><tr><td style="font-weight:bold;vertical-align:top;">httponly</td><td style="vertical-align:top;">:</td><td><div></div></td></tr><tr><td style="font-weight:bold;vertical-align:top;">max-age</td><td style="vertical-align:top;">:</td><td><div></div></td></tr><tr><td style="font-weight:bold;vertical-align:top;">path</td><td style="vertical-align:top;">:</td><td><div></div></td></tr><tr><td style="font-weight:bold;vertical-align:top;">secure</td><td style="vertical-align:top;">:</td><td><div></div></td></tr><tr><td style="font-weight:bold;vertical-align:top;">version</td><td style="vertical-align:top;">:</td><td><div></div></td></tr></table></div></td></tr><tr><td style="font-weight:bold;vertical-align:top;">session_id_slugtutor183</td><td style="vertical-align:top;">:</td><td><div>1:a7428b4d-125e-4f11-97ab-a1faee174c82<table><tr><td style="font-weight:bold;vertical-align:top;">comment</td><td style="vertical-align:top;">:</td><td><div></div></td></tr><tr><td style="font-weight:bold;vertical-align:top;">domain</td><td style="vertical-align:top;">:</td><td><div></div></td></tr><tr><td style="font-weight:bold;vertical-align:top;">expires</td><td style="vertical-align:top;">:</td><td><div></div></td></tr><tr><td style="font-weight:bold;vertical-align:top;">httponly</td><td style="vertical-align:top;">:</td><td><div></div></td></tr><tr><td style="font-weight:bold;vertical-align:top;">max-age</td><td style="vertical-align:top;">:</td><td><div></div></td></tr><tr><td style="font-weight:bold;vertical-align:top;">path</td><td style="vertical-align:top;">:</td><td><div></div></td></tr><tr><td style="font-weight:bold;vertical-align:top;">secure</td><td style="vertical-align:top;">:</td><td><div></div></td></tr><tr><td style="font-weight:bold;vertical-align:top;">version</td><td style="vertical-align:top;">:</td><td><div></div></td></tr></table></div></td></tr><tr><td style="font-weight:bold;vertical-align:top;">session_id_welcome</td><td style="vertical-align:top;">:</td><td><div>127.0.0.1-57e0b6a3-1eba-48b9-b144-917217bd54ee<table><tr><td style="font-weight:bold;vertical-align:top;">comment</td><td style="vertical-align:top;">:</td><td><div></div></td></tr><tr><td style="font-weight:bold;vertical-align:top;">domain</td><td style="vertical-align:top;">:</td><td><div></div></td></tr><tr><td style="font-weight:bold;vertical-align:top;">expires</td><td style="vertical-align:top;">:</td><td><div></div></td></tr><tr><td style="font-weight:bold;vertical-align:top;">httponly</td><td style="vertical-align:top;">:</td><td><div></div></td></tr><tr><td style="font-weight:bold;vertical-align:top;">max-age</td><td style="vertical-align:top;">:</td><td><div></div></td></tr><tr><td style="font-weight:bold;vertical-align:top;">path</td><td style="vertical-align:top;">:</td><td><div></div></td></tr><tr><td style="font-weight:bold;vertical-align:top;">secure</td><td style="vertical-align:top;">:</td><td><div></div></td></tr><tr><td style="font-weight:bold;vertical-align:top;">version</td><td style="vertical-align:top;">:</td><td><div></div></td></tr></table></div></td></tr></table></div></td></tr><tr><td style="font-weight:bold;vertical-align:top;">env</td><td style="vertical-align:top;">:</td><td><div><table><tr><td style="font-weight:bold;vertical-align:top;">HTTP_ACCEPT</td><td style="vertical-align:top;">:</td><td><div>text/html,application/xhtml+xml,application/xml;q=0.9,image/webp,image/apng,*/*;q=0.8</div></td></tr><tr><td style="font-weight:bold;vertical-align:top;">HTTP_ACCEPT_ENCODING</td><td style="vertical-align:top;">:</td><td><div>gzip, deflate, br</div></td></tr><tr><td style="font-weight:bold;vertical-align:top;">HTTP_ACCEPT_LANGUAGE</td><td style="vertical-align:top;">:</td><td><div>en-US,en;q=0.9,es;q=0.8</div></td></tr><tr><td style="font-weight:bold;vertical-align:top;">HTTP_CACHE_CONTROL</td><td style="vertical-align:top;">:</td><td><div>max-age=0</div></td></tr><tr><td style="font-weight:bold;vertical-align:top;">HTTP_CONNECTION</td><td style="vertical-align:top;">:</td><td><div>keep-alive</div></td></tr><tr><td style="font-weight:bold;vertical-align:top;">HTTP_COOKIE</td><td style="vertical-align:top;">:</td><td><div>__lnkrntdmcvrd=-1; session_id_admin=127.0.0.1-5887b352-2be2-4296-9f87-c2a54a7f8924; session_id_slugtutor183=&quot;1:a7428b4d-125e-4f11-97ab-a1faee174c82&quot;; session_id_welcome=127.0.0.1-57e0b6a3-1eba-48b9-b144-917217bd54ee</div></td></tr><tr><td style="font-weight:bold;vertical-align:top;">HTTP_HOST</td><td style="vertical-align:top;">:</td><td><div>127.0.0.1:8000</div></td></tr><tr><td style="font-weight:bold;vertical-align:top;">HTTP_UPGRADE_INSECURE_REQUESTS</td><td style="vertical-align:top;">:</td><td><div>1</div></td></tr><tr><td style="font-weight:bold;vertical-align:top;">HTTP_USER_AGENT</td><td style="vertical-align:top;">:</td><td><div>Mozilla/5.0 (Macintosh; Intel Mac OS X 10_10_5) AppleWebKit/537.36 (KHTML, like Gecko) Chrome/67.0.3396.79 Safari/537.36</div></td></tr><tr><td style="font-weight:bold;vertical-align:top;">PATH_INFO</td><td style="vertical-align:top;">:</td><td><div>/slugtutor183/default/index</div></td></tr><tr><td style="font-weight:bold;vertical-align:top;">QUERY_STRING</td><td style="vertical-align:top;">:</td><td><div></div></td></tr><tr><td style="font-weight:bold;vertical-align:top;">REMOTE_ADDR</td><td style="vertical-align:top;">:</td><td><div>127.0.0.1</div></td></tr><tr><td style="font-weight:bold;vertical-align:top;">REMOTE_PORT</td><td style="vertical-align:top;">:</td><td><div>53687</div></td></tr><tr><td style="font-weight:bold;vertical-align:top;">REQUEST_METHOD</td><td style="vertical-align:top;">:</td><td><div>GET</div></td></tr><tr><td style="font-weight:bold;vertical-align:top;">SCRIPT_NAME</td><td style="vertical-align:top;">:</td><td><div></div></td></tr><tr><td style="font-weight:bold;vertical-align:top;">SERVER_NAME</td><td style="vertical-align:top;">:</td><td><div>eduroam-169-233-251-161.ucsc.edu</div></td></tr><tr><td style="font-weight:bold;vertical-align:top;">SERVER_PORT</td><td style="vertical-align:top;">:</td><td><div>8000</div></td></tr><tr><td style="font-weight:bold;vertical-align:top;">SERVER_PROTOCOL</td><td style="vertical-align:top;">:</td><td><div>HTTP/1.1</div></td></tr><tr><td style="font-weight:bold;vertical-align:top;">SERVER_SOFTWARE</td><td style="vertical-align:top;">:</td><td><div>Rocket 1.2.6</div></td></tr><tr><td style="font-weight:bold;vertical-align:top;">app_folders</td><td style="vertical-align:top;">:</td><td><div>set([&#x27;/Users/anthonynguyen/Desktop/CMPS-183/web2py/applications/admin/&#x27;, &#x27;/Users/anthonynguyen/Desktop/CMPS-183/web2py/applications/welcome/&#x27;, &#x27;/Users/anthonynguyen/Desktop/CMPS-183/web2py/applications/slugtutor183/&#x27;])</div></td></tr><tr><td style="font-weight:bold;vertical-align:top;">applications_parent</td><td style="vertical-align:top;">:</td><td><div>/Users/anthonynguyen/Desktop/CMPS-183/web2py</div></td></tr><tr><td style="font-weight:bold;vertical-align:top;">cmd_args</td><td style="vertical-align:top;">:</td><td><div><table></table></div></td></tr><tr><td style="font-weight:bold;vertical-align:top;">cmd_options</td><td style="vertical-align:top;">:</td><td><div>&lt;Values at 0x1111679e0: {&#x27;verbose&#x27;: False, &#x27;ip&#x27;: &#x27;127.0.0.1&#x27;, &#x27;debuglevel&#x27;: 30, &#x27;with_scheduler&#x27;: False, &#x27;shutdown_timeout&#x27;: 5, &#x27;taskbar&#x27;: False, &#x27;with_coverage&#x27;: False, &#x27;pid_filename&#x27;: &#x27;httpserver.pid&#x27;, &#x27;maxthreads&#x27;: None, &#x27;softcron&#x27;: False, &#x27;server_name&#x27;: &#x27;eduroam-169-233-251-161.ucsc.edu&#x27;, &#x27;bpython&#x27;: False, &#x27;nogui&#x27;: False, &#x27;port&#x27;: 8000, &#x27;print_errors&#x27;: False, &#x27;extcron&#x27;: False, &#x27;runcron&#x27;: False, &#x27;run_system_tests&#x27;: False, &#x27;test&#x27;: None, &#x27;folder&#x27;: &#x27;/Users/anthonynguyen/Desktop/CMPS-183/web2py&#x27;, &#x27;config&#x27;: &#x27;&#x27;, &#x27;minthreads&#x27;: None, &#x27;shell&#x27;: None, &#x27;run&#x27;: &#x27;&#x27;, &#x27;log_filename&#x27;: &#x27;httpserver.log&#x27;, &#x27;profiler_dir&#x27;: None, &#x27;args&#x27;: [&#x27;&#x27;], &#x27;socket_timeout&#x27;: 5, &#x27;ssl_ca_certificate&#x27;: None, &#x27;scheduler&#x27;: None, &#x27;interfaces&#x27;: None, &#x27;ssl_private_key&#x27;: &#x27;&#x27;, &#x27;gae&#x27;: None, &#x27;password&#x27;: &#x27;******&#x27;, &#x27;request_queue_size&#x27;: 5, &#x27;ssl_certificate&#x27;: &#x27;&#x27;, &#x27;cronjob&#x27;: False, &#x27;numthreads&#x27;: None, &#x27;quiet&#x27;: False, &#x27;import_models&#x27;: False, &#x27;timeout&#x27;: 10, &#x27;plain&#x27;: False, &#x27;nobanner&#x27;: False}&gt;</div></td></tr><tr><td style="font-weight:bold;vertical-align:top;">db_sessions</td><td style="vertical-align:top;">:</td><td><div>set([&#x27;slugtutor183&#x27;])</div></td></tr><tr><td style="font-weight:bold;vertical-align:top;">debugging</td><td style="vertical-align:top;">:</td><td><div>False</div></td></tr><tr><td style="font-weight:bold;vertical-align:top;">gluon_parent</td><td style="vertical-align:top;">:</td><td><div>/Users/anthonynguyen/Desktop/CMPS-183/web2py</div></td></tr><tr><td style="font-weight:bold;vertical-align:top;">http_accept</td><td style="vertical-align:top;">:</td><td><div>text/html,application/xhtml+xml,application/xml;q=0.9,image/webp,image/apng,*/*;q=0.8</div></td></tr><tr><td style="font-weight:bold;vertical-align:top;">http_accept_encoding</td><td style="vertical-align:top;">:</td><td><div>gzip, deflate, br</div></td></tr><tr><td style="font-weight:bold;vertical-align:top;">http_accept_language</td><td style="vertical-align:top;">:</td><td><div>en-US,en;q=0.9,es;q=0.8</div></td></tr><tr><td style="font-weight:bold;vertical-align:top;">http_cache_control</td><td style="vertical-align:top;">:</td><td><div>max-age=0</div></td></tr><tr><td style="font-weight:bold;vertical-align:top;">http_connection</td><td style="vertical-align:top;">:</td><td><div>keep-alive</div></td></tr><tr><td style="font-weight:bold;vertical-align:top;">http_cookie</td><td style="vertical-align:top;">:</td><td><div>__lnkrntdmcvrd=-1; session_id_admin=127.0.0.1-5887b352-2be2-4296-9f87-c2a54a7f8924; session_id_slugtutor183=&quot;1:a7428b4d-125e-4f11-97ab-a1faee174c82&quot;; session_id_welcome=127.0.0.1-57e0b6a3-1eba-48b9-b144-917217bd54ee</div></td></tr><tr><td style="font-weight:bold;vertical-align:top;">http_host</td><td style="vertical-align:top;">:</td><td><div>127.0.0.1:8000</div></td></tr><tr><td style="font-weight:bold;vertical-align:top;">http_upgrade_insecure_requests</td><td style="vertical-align:top;">:</td><td><div>1</div></td></tr><tr><td style="font-weight:bold;vertical-align:top;">http_user_agent</td><td style="vertical-align:top;">:</td><td><div>Mozilla/5.0 (Macintosh; Intel Mac OS X 10_10_5) AppleWebKit/537.36 (KHTML, like Gecko) Chrome/67.0.3396.79 Safari/537.36</div></td></tr><tr><td style="font-weight:bold;vertical-align:top;">is_jython</td><td style="vertical-align:top;">:</td><td><div>False</div></td></tr><tr><td style="font-weight:bold;vertical-align:top;">is_py2</td><td style="vertical-align:top;">:</td><td><div>True</div></td></tr><tr><td style="font-weight:bold;vertical-align:top;">is_pypy</td><td style="vertical-align:top;">:</td><td><div>False</div></td></tr><tr><td style="font-weight:bold;vertical-align:top;">is_source</td><td style="vertical-align:top;">:</td><td><div>True</div></td></tr><tr><td style="font-weight:bold;vertical-align:top;">local_hosts</td><td style="vertical-align:top;">:</td><td><div><table><tr><td><div>::1</div></td></tr><tr><td><div>eduroam-169-233-251-161.ucsc.edu</div></td></tr><tr><td><div>::ffff:127.0.0.1</div></td></tr><tr><td><div>127.0.0.1</div></td></tr><tr><td><div>169.233.251.161</div></td></tr></table></div></td></tr><tr><td style="font-weight:bold;vertical-align:top;">path_info</td><td style="vertical-align:top;">:</td><td><div>/slugtutor183/default/index</div></td></tr><tr><td style="font-weight:bold;vertical-align:top;">query_string</td><td style="vertical-align:top;">:</td><td><div></div></td></tr><tr><td style="font-weight:bold;vertical-align:top;">remote_addr</td><td style="vertical-align:top;">:</td><td><div>127.0.0.1</div></td></tr><tr><td style="font-weight:bold;vertical-align:top;">remote_port</td><td style="vertical-align:top;">:</td><td><div>53687</div></td></tr><tr><td style="font-weight:bold;vertical-align:top;">request_method</td><td style="vertical-align:top;">:</td><td><div>GET</div></td></tr><tr><td style="font-weight:bold;vertical-align:top;">request_uri</td><td style="vertical-align:top;">:</td><td><div>/slugtutor183/default/index</div></td></tr><tr><td style="font-weight:bold;vertical-align:top;">script_name</td><td style="vertical-align:top;">:</td><td><div></div></td></tr><tr><td style="font-weight:bold;vertical-align:top;">server_name</td><td style="vertical-align:top;">:</td><td><div>eduroam-169-233-251-161.ucsc.edu</div></td></tr><tr><td style="font-weight:bold;vertical-align:top;">server_port</td><td style="vertical-align:top;">:</td><td><div>8000</div></td></tr><tr><td style="font-weight:bold;vertical-align:top;">server_protocol</td><td style="vertical-align:top;">:</td><td><div>HTTP/1.1</div></td></tr><tr><td style="font-weight:bold;vertical-align:top;">server_software</td><td style="vertical-align:top;">:</td><td><div>Rocket 1.2.6</div></td></tr><tr><td style="font-weight:bold;vertical-align:top;">web2py_path</td><td style="vertical-align:top;">:</td><td><div>/Users/anthonynguyen/Desktop/CMPS-183/web2py</div></td></tr><tr><td style="font-weight:bold;vertical-align:top;">web2py_version</td><td style="vertical-align:top;">:</td><td><div>2.16.1-stable+timestamp.2017.11.14.05.54.25</div></td></tr><tr><td style="font-weight:bold;vertical-align:top;">wsgi.errors</td><td style="vertical-align:top;">:</td><td><div>&lt;open file &#x27;&lt;stderr&gt;&#x27;, mode &#x27;w&#x27; at 0x10f8cb1e0&gt;</div></td></tr><tr><td style="font-weight:bold;vertical-align:top;">wsgi.file_wrapper</td><td style="vertical-align:top;">:</td><td><div>&lt;class wsgiref.util.FileWrapper at 0x111128870&gt;</div></td></tr><tr><td style="font-weight:bold;vertical-align:top;">wsgi.input</td><td style="vertical-align:top;">:</td><td><div>&lt;socket._fileobject object at 0x11be059d0&gt;</div></td></tr><tr><td style="font-weight:bold;vertical-align:top;">wsgi.multiprocess</td><td style="vertical-align:top;">:</td><td><div>False</div></td></tr><tr><td style="font-weight:bold;vertical-align:top;">wsgi.multithread</td><td style="vertical-align:top;">:</td><td><div>True</div></td></tr><tr><td style="font-weight:bold;vertical-align:top;">wsgi.run_once</td><td style="vertical-align:top;">:</td><td><div>False</div></td></tr><tr><td style="font-weight:bold;vertical-align:top;">wsgi.url_scheme</td><td style="vertical-align:top;">:</td><td><div>http</div></td></tr><tr><td style="font-weight:bold;vertical-align:top;">wsgi.version</td><td style="vertical-align:top;">:</td><td><div><table><tr><td><div>1</div></td></tr><tr><td><div>0</div></td></tr></table></div></td></tr><tr><td style="font-weight:bold;vertical-align:top;">wsgi_errors</td><td style="vertical-align:top;">:</td><td><div>&lt;open file &#x27;&lt;stderr&gt;&#x27;, mode &#x27;w&#x27; at 0x10f8cb1e0&gt;</div></td></tr><tr><td style="font-weight:bold;vertical-align:top;">wsgi_file_wrapper</td><td style="vertical-align:top;">:</td><td><div>&lt;class wsgiref.util.FileWrapper at 0x111128870&gt;</div></td></tr><tr><td style="font-weight:bold;vertical-align:top;">wsgi_input</td><td style="vertical-align:top;">:</td><td><div>&lt;socket._fileobject object at 0x11be059d0&gt;</div></td></tr><tr><td style="font-weight:bold;vertical-align:top;">wsgi_multiprocess</td><td style="vertical-align:top;">:</td><td><div>False</div></td></tr><tr><td style="font-weight:bold;vertical-align:top;">wsgi_multithread</td><td style="vertical-align:top;">:</td><td><div>True</div></td></tr><tr><td style="font-weight:bold;vertical-align:top;">wsgi_run_once</td><td style="vertical-align:top;">:</td><td><div>False</div></td></tr><tr><td style="font-weight:bold;vertical-align:top;">wsgi_url_scheme</td><td style="vertical-align:top;">:</td><td><div>http</div></td></tr><tr><td style="font-weight:bold;vertical-align:top;">wsgi_version</td><td style="vertical-align:top;">:</td><td><div><table><tr><td><div>1</div></td></tr><tr><td><div>0</div></td></tr></table></div></td></tr></table></div></td></tr><tr><td style="font-weight:bold;vertical-align:top;">extension</td><td style="vertical-align:top;">:</td><td><div>html</div></td></tr><tr><td style="font-weight:bold;vertical-align:top;">folder</td><td style="vertical-align:top;">:</td><td><div>/Users/anthonynguyen/Desktop/CMPS-183/web2py/applications/slugtutor183/</div></td></tr><tr><td style="font-weight:bold;vertical-align:top;">function</td><td style="vertical-align:top;">:</td><td><div>index</div></td></tr><tr><td style="font-weight:bold;vertical-align:top;">global_settings</td><td style="vertical-align:top;">:</td><td><div><table><tr><td style="font-weight:bold;vertical-align:top;">app_folders</td><td style="vertical-align:top;">:</td><td><div>set([&#x27;/Users/anthonynguyen/Desktop/CMPS-183/web2py/applications/admin/&#x27;, &#x27;/Users/anthonynguyen/Desktop/CMPS-183/web2py/applications/welcome/&#x27;, &#x27;/Users/anthonynguyen/Desktop/CMPS-183/web2py/applications/slugtutor183/&#x27;])</div></td></tr><tr><td style="font-weight:bold;vertical-align:top;">applications_parent</td><td style="vertical-align:top;">:</td><td><div>/Users/anthonynguyen/Desktop/CMPS-183/web2py</div></td></tr><tr><td style="font-weight:bold;vertical-align:top;">cmd_args</td><td style="vertical-align:top;">:</td><td><div><table></table></div></td></tr><tr><td style="font-weight:bold;vertical-align:top;">cmd_options</td><td style="vertical-align:top;">:</td><td><div>&lt;Values at 0x1111679e0: {&#x27;verbose&#x27;: False, &#x27;ip&#x27;: &#x27;127.0.0.1&#x27;, &#x27;debuglevel&#x27;: 30, &#x27;with_scheduler&#x27;: False, &#x27;shutdown_timeout&#x27;: 5, &#x27;taskbar&#x27;: False, &#x27;with_coverage&#x27;: False, &#x27;pid_filename&#x27;: &#x27;httpserver.pid&#x27;, &#x27;maxthreads&#x27;: None, &#x27;softcron&#x27;: False, &#x27;server_name&#x27;: &#x27;eduroam-169-233-251-161.ucsc.edu&#x27;, &#x27;bpython&#x27;: False, &#x27;nogui&#x27;: False, &#x27;port&#x27;: 8000, &#x27;print_errors&#x27;: False, &#x27;extcron&#x27;: False, &#x27;runcron&#x27;: False, &#x27;run_system_tests&#x27;: False, &#x27;test&#x27;: None, &#x27;folder&#x27;: &#x27;/Users/anthonynguyen/Desktop/CMPS-183/web2py&#x27;, &#x27;config&#x27;: &#x27;&#x27;, &#x27;minthreads&#x27;: None, &#x27;shell&#x27;: None, &#x27;run&#x27;: &#x27;&#x27;, &#x27;log_filename&#x27;: &#x27;httpserver.log&#x27;, &#x27;profiler_dir&#x27;: None, &#x27;args&#x27;: [&#x27;&#x27;], &#x27;socket_timeout&#x27;: 5, &#x27;ssl_ca_certificate&#x27;: None, &#x27;scheduler&#x27;: None, &#x27;interfaces&#x27;: None, &#x27;ssl_private_key&#x27;: &#x27;&#x27;, &#x27;gae&#x27;: None, &#x27;password&#x27;: &#x27;******&#x27;, &#x27;request_queue_size&#x27;: 5, &#x27;ssl_certificate&#x27;: &#x27;&#x27;, &#x27;cronjob&#x27;: False, &#x27;numthreads&#x27;: None, &#x27;quiet&#x27;: False, &#x27;import_models&#x27;: False, &#x27;timeout&#x27;: 10, &#x27;plain&#x27;: False, &#x27;nobanner&#x27;: False}&gt;</div></td></tr><tr><td style="font-weight:bold;vertical-align:top;">db_sessions</td><td style="vertical-align:top;">:</td><td><div>set([&#x27;slugtutor183&#x27;])</div></td></tr><tr><td style="font-weight:bold;vertical-align:top;">debugging</td><td style="vertical-align:top;">:</td><td><div>False</div></td></tr><tr><td style="font-weight:bold;vertical-align:top;">gluon_parent</td><td style="vertical-align:top;">:</td><td><div>/Users/anthonynguyen/Desktop/CMPS-183/web2py</div></td></tr><tr><td style="font-weight:bold;vertical-align:top;">is_jython</td><td style="vertical-align:top;">:</td><td><div>False</div></td></tr><tr><td style="font-weight:bold;vertical-align:top;">is_py2</td><td style="vertical-align:top;">:</td><td><div>True</div></td></tr><tr><td style="font-weight:bold;vertical-align:top;">is_pypy</td><td style="vertical-align:top;">:</td><td><div>False</div></td></tr><tr><td style="font-weight:bold;vertical-align:top;">is_source</td><td style="vertical-align:top;">:</td><td><div>True</div></td></tr><tr><td style="font-weight:bold;vertical-align:top;">local_hosts</td><td style="vertical-align:top;">:</td><td><div><table><tr><td><div>::1</div></td></tr><tr><td><div>eduroam-169-233-251-161.ucsc.edu</div></td></tr><tr><td><div>::ffff:127.0.0.1</div></td></tr><tr><td><div>127.0.0.1</div></td></tr><tr><td><div>169.233.251.161</div></td></tr></table></div></td></tr><tr><td style="font-weight:bold;vertical-align:top;">web2py_version</td><td style="vertical-align:top;">:</td><td><div>2.16.1-stable+timestamp.2017.11.14.05.54.25</div></td></tr></table></div></td></tr><tr><td style="font-weight:bold;vertical-align:top;">is_https</td><td style="vertical-align:top;">:</td><td><div>False</div></td></tr><tr><td style="font-weight:bold;vertical-align:top;">is_local</td><td style="vertical-align:top;">:</td><td><div>True</div></td></tr><tr><td style="font-weight:bold;vertical-align:top;">is_restful</td><td style="vertical-align:top;">:</td><td><div>False</div></td></tr><tr><td style="font-weight:bold;vertical-align:top;">is_scheduler</td><td style="vertical-align:top;">:</td><td><div>False</div></td></tr><tr><td style="font-weight:bold;vertical-align:top;">is_shell</td><td style="vertical-align:top;">:</td><td><div>False</div></td></tr><tr><td style="font-weight:bold;vertical-align:top;">now</td><td style="vertical-align:top;">:</td><td><div>datetime.datetime(2018, 6, 8, 19, 37, 37, 52809)</div></td></tr><tr><td style="font-weight:bold;vertical-align:top;">raw_args</td><td style="vertical-align:top;">:</td><td><div></div></td></tr><tr><td style="font-weight:bold;vertical-align:top;">raw_extension</td><td style="vertical-align:top;">:</td><td><div>None</div></td></tr><tr><td style="font-weight:bold;vertical-align:top;">url</td><td style="vertical-align:top;">:</td><td><div>/slugtutor183/default/index</div></td></tr><tr><td style="font-weight:bold;vertical-align:top;">utcnow</td><td style="vertical-align:top;">:</td><td><div>datetime.datetime(2018, 6, 9, 2, 37, 37, 52821)</div></td></tr><tr><td style="font-weight:bold;vertical-align:top;">wsgi</td><td style="vertical-align:top;">:</td><td><div>&lt;gluon.main.LazyWSGI object at 0x11bc95190&gt;</div></td></tr></table></div>'
tRp60
sS'frames'
p61
(lp62
(dp63
S'file'
p64
S'/Users/anthonynguyen/Desktop/CMPS-183/web2py/gluon/restricted.py'
p65
sS'dump'
p66
(dp67
S'environment'
p68
S"{'A': <class 'gluon.html.A'>, 'ANY_OF': <class 'gluon.validators.ANY_OF'>, 'ASSIGNJS': <function ASSIGNJS>, 'AppConfig': <function AppConfig>, 'Auth': <class 'gluon.tools.Auth'>, 'B': <class 'gluon.html.B'>, 'BEAUTIFY': <class 'gluon.html.BEAUTIFY'>, 'BODY': <class 'gluon.html.BODY'>, 'BR': <class 'gluon.html.BR'>, 'BUTTON': <class 'gluon.html.BUTTON'>, ...}"
p69
sS'ccode'
p70
S'<code object <module> at 0x11be85930, file "/Use...s/slugtutor183/views/default/index.html", line 1>'
p71
ssS'lnum'
p72
I219
sS'lines'
p73
(dp74
I214
S'    if environment is None:'
p75
sI215
S'        environment = {}'
p76
sI216
S"    environment['__file__'] = layer"
p77
sI217
S"    environment['__name__'] = '__restricted__'"
p78
sI218
S'    try:'
p79
sI219
S'        exec(ccode, environment)'
p80
sI220
S'    except HTTP:'
p81
sI221
S'        raise'
p82
sI222
S'    except RestrictedError:'
p83
sI223
S'        # do not encapsulate (obfuscate) the original RestrictedError'
p84
ssS'call'
p85
S'(ccode=<code object <module> at 0x11be85930, file "/Use...s/slugtutor183/views/default/index.html", line 1>, environment={\'A\': <class \'gluon.html.A\'>, \'ANY_OF\': <class \'gluon.validators.ANY_OF\'>, \'ASSIGNJS\': <function ASSIGNJS>, \'AppConfig\': <function AppConfig>, \'Auth\': <class \'gluon.tools.Auth\'>, \'B\': <class \'gluon.html.B\'>, \'BEAUTIFY\': <class \'gluon.html.BEAUTIFY\'>, \'BODY\': <class \'gluon.html.BODY\'>, \'BR\': <class \'gluon.html.BR\'>, \'BUTTON\': <class \'gluon.html.BUTTON\'>, ...}, layer=\'/Users/anthonynguyen/Desktop/CMPS-183/web2py/applications/slugtutor183/views/default/index.html\', scode=\'response.write(\\\'<html>\\\\n\\\\n<head>\\\\n\\\\t<meta charse...\\\\n\\\\t});\\\\n\\\\n</script>\\\\n\\\\n</html>\\\\n", escape=False)\')'
p86
sS'func'
p87
S'restricted'
p88
sa(dp89
g64
S'/Users/anthonynguyen/Desktop/CMPS-183/web2py/applications/slugtutor183/views/default/index.html'
p90
sg66
(dp91
S'model'
p92
S'undefined'
p93
sS'builtininput'
p94
S'<built-in function input>'
p95
sS'placeholder'
p96
g93
sS'v'
g93
ssg72
I72
sg73
(dp97
I64
S'response.write(\'";\\n\\tvar api_add_post_url = "\', escape=False)'
p98
sI65
S"response.write(URL('api', 'add_post'))"
p99
sI66
S'response.write(\'";\\n\\tvar api_get_tutorlist_url = "\', escape=False)'
p100
sI67
S"response.write(URL('api', 'get_tutorlist'))"
p101
sI68
S'response.write(\'";\\n\\tvar message = \\\' \\\' ; \\n</script>\\n\', escape=False)'
p102
sI69
S'response.write(\'\\n\\n<div class="main_content">\\n\\n\\t<div id="vue-div" class="display:none">\\n\\n\\n\\n\\t\\t<!-- Here goes your main HTML code. -->\\n\\t\\t<div v-if="page==\\\'tutor_result_page\\\'">\\n\\n\\t\\t\\t<li v-for="value in class_list">\\n\\t\\t\\t\\t${ value } $ { value.leader }\\n\\t\\t\\t</li>\\n\\n\\t\\t\\t\\n\\n\\t\\t\\t<li v-for="post in postings">\\n\\t\\t\\t\\t${ post }\\n\\t\\t\\t</li>\\n\\n\\t\\t\\t<button @click="goto(\\\'main\\\')"> go home </button>\\n\\t\\t</div>\\n\\t\\t<transition name="fade">\\n\\t\\t\\t<div v-if="page==\\\'main\\\'" class="container-fluid">\\n\\t\\t\\t\\t<div class="jumbotron">\\n\\t\\t\\t\\t\\t<!-- <a class="btn btn-primary btn-lg" href="#" role="button">Learn more</a> -->\\n\\n\\n\\t\\t\\t\\t\\t\', escape=False)'
p103
sI70
S'if auth.user is None:'
p104
sI71
S'    response.write(\'\\n\\t\\t\\t\\t\\t<h1 class="display-4">Learn More. Earn More.</h1>\\n\\t\\t\\t\\t\\t\\n\\t\\t\\t\\t\\n\\t\\t\\t\\t<ul>\\n\\t\\t\\t\\t\\t\\n\\t\\t\\t\\t<li v-for="t in tutorlist">\\n\\t\\t\\t\\t\\t${t}\\n\\t\\t\\t\\t\\t<input v-model="message" placeholder="edit me">\\n\\t\\t\\t\\t\\t\\t\\t<p>Message is: \', escape=False)'
p105
sI72
S'    message'
p106
sI73
S'    response.write(\'</p>\\n\\t\\t\\t\\t\\t\\n\\t\\t\\t\\t</li>\\n\\t\\t\\t</ul>\\n\\n\\t\\t\\t\\t\\t<hr class="my-4">\\n\\t\\t\\t\\t\\t<p class="lead">Slugtutor is the easiest way for students to find the best tutors for their academic needs.</p>\\n\\t\\t\\t\\t\\t<p class="lead">Excel in a class? Interested in helping others and earning some extra cash? Sign in to add your availibility and expertise.</p>\\n\\t\\t\\t\\t\\t\', escape=False)'
p107
sI74
S'else:'
p108
sI75
S'    response.write(\'\\n\\t\\t\\t\\t\\t<h1 class="display-4">Welcome back \', escape=False)'
p109
sI76
S'    response.write(auth.user["first_name"])'
p110
sI77
S'    response.write(\'</h1>\\n\\t\\t\\t\\t\\t<hr class="my-4"> \', escape=False)'
p111
sI78
S'    pass'
p112
sI79
S'response.write(\'\\n\\n\\t\\t\\t\\t\\t<div class="row">\\n\\n\\t\\t\\t\\t\\t\\t<div class="offset-md-3 col-md-6 col-sm-12">\\n\\t\\t\\t\\t\\t\\t\\t<form>\\n\\t\\t\\t\\t\\t\\t\\t\\t<div class="form-group">\\n\\t\\t\\t\\t\\t\\t\\t\\t\\t<h4 class="mx-2 lead">Search for classes to find tutors who can help you:</h4>\\n\\t\\t\\t\\t\\t\\t\\t\\t\\t<h6 class="mx-2">Find me help for...</h6>\\n\\n\\n\\t\\t\\t\\t\\t\\t\\t\\t\\t<!-- <select v-model="selected">\\n\\t\\t\\t\\t\\t\\t\\t\\t\\t<option v-for="class in class_dept" v-bind:value="class.value"> ${class.text} </option>\\n\\t\\t\\t\\t\\t\\t\\t\\t</select> !-->\\n\\n\\t\\t\\t\\t\\t\\t\\t\\t\\t<!--<input class="w-80" v-model="student_search" v placeholder="CMPS 183">!-->\\n\\n\\t\\t\\t\\t\\t\\t\\t\\t\\t<input class="w-80" v-model="selected" v-model="student_search" v placeholder="CMPS">\\n\\t\\t\\t\\t\\t\\t\\t\\t\\t<input class="w-80" v-model="student_search"  v placeholder=" 183">\\n\\n\\t\\t\\t\\t\\t\\t\\t\\t\\t<button type="button" class="btn btn-outline-success w-20 my-sm-0" v-on:click="search_for_tutors(selected,student_search)">Search</button>\\n\\t\\t\\t\\t\\t\\t\\t\\t</div>\\n\\t\\t\\t\\t\\t\\t\\t</form>\\n\\t\\t\\t\\t\\t\\t\\t<form>\\n\\t\\t\\t\\t\\t\\t\\t\\t<div class="form-group">\\n\\t\\t\\t\\t\\t\\t\\t\\t\\t<h4 class="mx-2 lead">Interested in becoming a tutor? Create a posting so students can find you.</h4>\\n\\t\\t\\t\\t\\t\\t\\t\\t\\t<input v-model="tutor_input" placeholder="CMPS 183">\\n\\t\\t\\t\\t\\t\\t\\t\\t\\t<button class="btn btn-outline-success w-20 my-sm-0" v-on:click="add_post(tutor_input)">Create</button>\\n\\t\\t\\t\\t\\t\\t\\t\\t</div>\\n\\t\\t\\t\\t\\t\\t\\t</form>\\n\\t\\t\\t\\t\\t\\t\\t<div class="form-group">\\n\\t\\t\\t\\t\\t\\t\\t\\t<h6 class="mx-2">Quote of the day:</h6>\\n\\t\\t\\t\\t\\t\\t\\t\\t<div id="new-quote">\\n\\n\\t\\t\\t\\t\\t\\t\\t\\t\\t<p>${ quoteText }</p> <i>${ quoteAuthor }</i>\\n\\t\\t\\t\\t\\t\\t\\t\\t\\t<!--                  <button class="btn btn-outline-success  my-sm-0" v-on:click="getQuote">New Quote</button>-->\\n\\t\\t\\t\\t\\t\\t\\t\\t</div>\\n\\t\\t\\t\\t\\t\\t\\t</div>\\n\\n\\t\\t\\t\\t\\t\\t\\t<div class="col-md-3">\\n\\n\\t\\t\\t\\t\\t\\t\\t</div>\\n\\t\\t\\t\\t\\t\\t</div>\\n\\t\\t\\t\\t\\t</div>\\n\\t\\t\\t\\t</div>\\n\\t\\t\\t</div>\\n\\t\\t</transition>\\n\\t\\t<div v-if="page==\\\'create_post_page\\\'">\\n\\t\\t\\t<form>\\n\\t\\t\\t\\t<div class="form-row">\\n\\t\\t\\t\\t\\t<div class="form-group col-md-6">\\n\\t\\t\\t\\t\\t\\t<label for="inputTitle">Title</label>\\n\\t\\t\\t\\t\\t\\t<input type="text" class="form-control" id="inputTitle" placeholder="Web Applications">\\n\\t\\t\\t\\t\\t</div>\\n\\t\\t\\t\\t\\t<div class="form-group col-md-6">\\n\\t\\t\\t\\t\\t\\t<label for="inputClassNum">Class Number</label>\\n\\t\\t\\t\\t\\t\\t<input type="number" class="form-control" id="inputClassNumber" placeholder="183">\\n\\t\\t\\t\\t\\t</div>\\n\\t\\t\\t\\t</div>\\n\\t\\t\\t\\t<div class="form-group">\\n\\t\\t\\t\\t\\t<label for="inputDayOf">Day</label>\\n\\t\\t\\t\\t\\t<input type="datetime" class="form-control" id="inputDayOf">\\n\\t\\t\\t\\t</div>\\n\\t\\t\\t\\t<div class="form-group">\\n\\t\\t\\t\\t\\t<label for="inputStartTime">Time</label>\\n\\t\\t\\t\\t\\t<input type="text" class="form-control" id="inputStarTime">\\n\\t\\t\\t\\t</div>\\n\\t\\t\\t\\t\\n\\t\\t\\t\\t<div class="form-row">\\n\\t\\t\\t\\t\\t<div class="form-group col-md-6">\\n\\t\\t\\t\\t\\t\\t<label for="inputGroupOrInd"></label>\\n\\t\\t\\t\\t\\t\\t<input type="radio" id="one" value="One" v-model="picked">\\n\\t\\t\\t\\t\\t\\t<label for="one">Individual</label>\\n\\t\\t\\t\\t\\t\\t<br>\\n\\t\\t\\t\\t\\t\\t<input type="radio" id="two" value="Two" v-model="picked">\\n\\t\\t\\t\\t\\t\\t<label for="two">Group</label>\\n\\t\\t\\t\\t\\t\\t<br>\\n\\t\\t\\t\\t\\t</div>\\n\\t\\t\\t\\t</div>\\n\\t\\t\\t\\t<button type="submit" class="btn btn-primary">Submit</button>\\n\\t\\t\\t</form>\\n\\t\\t</div>\\n\\t</div>\\n</div>\\n\\n\\n\\n<script src="https://cdnjs.cloudflare.com/ajax/libs/gsap/1.20.3/TweenMax.min.js"></script>\\n\\n\\n<script src="\', escape=False)'
p113
sI80
S"response.write(URL('static', 'js/default_index.js'))"
p114
sI81
S'response.write(\'"></script>\\n\', escape=False)'
p115
sI82
S'response.write(\'\\n\\t</main>\\n\\t<footer>\\n\\t\\t<!--\\n    <div class="row">\\n      <div class="col-md-12 col-lg-12 col-sm-12 center">\\n        <div class="center">\\n          <a class="fa fa-facebook" href="https://www.facebook.com/sharer/sharer.php?u={url}"></a>\\n          <a class="fa fa-twitter" href="https://twitter.com/home?status={url}"></a>\\n          <a class="fa fa-google" href="https://plus.google.com/share?url={url}"></a>\\n        </div>\\n      </div>\\n    </div>\\n-->\\n\\n\\t</footer>\\n\\t<script src="\', escape=False)'
p116
sI63
S"response.write(URL('api', 'get_search'))"
p117
ssg85
S'()'
p118
sg87
S'<module>'
p119
sasS'pyver'
p120
S'Python 2.7.14: /Users/anthonynguyen/anaconda2/bin/python (prefix: /Users/anthonynguyen/anaconda2)'
p121
sS'session'
p122
g59
(S'sA\x01\x00\x00<div><table><tr><td style="font-weight:bold;vertical-align:top;">last_orderby</td><td style="vertical-align:top;">:</td><td><div>None</div></td></tr><tr><td style="font-weight:bold;vertical-align:top;">last_query</td><td style="vertical-align:top;">:</td><td><div>db.tutor.name!=&quot;&quot;</div></td></tr></table></div>'
tRp123
sS'etype'
p124
S"<type 'exceptions.NameError'>"
p125
sS'date'
p126
S'Fri Jun  8 19:37:37 2018'
p127
sS'response'
p128
g59
(S's*\x1e\x00\x00<div><table><tr><td style="font-weight:bold;vertical-align:top;">body</td><td style="vertical-align:top;">:</td><td><div>&lt;cStringIO.StringO object at 0x11bc93810&gt;</div></td></tr><tr><td style="font-weight:bold;vertical-align:top;">cookies</td><td style="vertical-align:top;">:</td><td><div><table><tr><td style="font-weight:bold;vertical-align:top;">session_id_slugtutor183</td><td style="vertical-align:top;">:</td><td><div>1:a7428b4d-125e-4f11-97ab-a1faee174c82<table><tr><td style="font-weight:bold;vertical-align:top;">comment</td><td style="vertical-align:top;">:</td><td><div></div></td></tr><tr><td style="font-weight:bold;vertical-align:top;">domain</td><td style="vertical-align:top;">:</td><td><div></div></td></tr><tr><td style="font-weight:bold;vertical-align:top;">expires</td><td style="vertical-align:top;">:</td><td><div></div></td></tr><tr><td style="font-weight:bold;vertical-align:top;">httponly</td><td style="vertical-align:top;">:</td><td><div></div></td></tr><tr><td style="font-weight:bold;vertical-align:top;">max-age</td><td style="vertical-align:top;">:</td><td><div></div></td></tr><tr><td style="font-weight:bold;vertical-align:top;">path</td><td style="vertical-align:top;">:</td><td><div>/</div></td></tr><tr><td style="font-weight:bold;vertical-align:top;">secure</td><td style="vertical-align:top;">:</td><td><div></div></td></tr><tr><td style="font-weight:bold;vertical-align:top;">version</td><td style="vertical-align:top;">:</td><td><div></div></td></tr></table></div></td></tr></table></div></td></tr><tr><td style="font-weight:bold;vertical-align:top;">delimiters</td><td style="vertical-align:top;">:</td><td><div><table><tr><td><div>{{</div></td></tr><tr><td><div>}}</div></td></tr></table></div></td></tr><tr><td style="font-weight:bold;vertical-align:top;">files</td><td style="vertical-align:top;">:</td><td><div><table><tr><td><div>/slugtutor183/static/js/jquery.js</div></td></tr><tr><td><div>/slugtutor183/static/css/calendar.css</div></td></tr><tr><td><div>/slugtutor183/static/js/calendar.js</div></td></tr><tr><td><div>/slugtutor183/static/js/web2py.js</div></td></tr></table></div></td></tr><tr><td style="font-weight:bold;vertical-align:top;">flash</td><td style="vertical-align:top;">:</td><td><div></div></td></tr><tr><td style="font-weight:bold;vertical-align:top;">form_label_separator</td><td style="vertical-align:top;">:</td><td><div></div></td></tr><tr><td style="font-weight:bold;vertical-align:top;">formstyle</td><td style="vertical-align:top;">:</td><td><div>bootstrap3_inline</div></td></tr><tr><td style="font-weight:bold;vertical-align:top;">generic_patterns</td><td style="vertical-align:top;">:</td><td><div><table><tr><td><div>*</div></td></tr></table></div></td></tr><tr><td style="font-weight:bold;vertical-align:top;">google_analytics_id</td><td style="vertical-align:top;">:</td><td><div>None</div></td></tr><tr><td style="font-weight:bold;vertical-align:top;">headers</td><td style="vertical-align:top;">:</td><td><div><table><tr><td style="font-weight:bold;vertical-align:top;">X-Powered-By</td><td style="vertical-align:top;">:</td><td><div>web2py</div></td></tr></table></div></td></tr><tr><td style="font-weight:bold;vertical-align:top;">logo</td><td style="vertical-align:top;">:</td><td><div><a class="navbar-brand" href="http://www.web2py.com/" id="web2py-logo"><b>web<span>2</span>py</b>&trade;&nbsp;</a></div></td></tr><tr><td style="font-weight:bold;vertical-align:top;">menu</td><td style="vertical-align:top;">:</td><td><div><table><tr><td><div><table><tr><td><div>Slugtutor</div></td></tr><tr><td><div>False</div></td></tr><tr><td><div>/slugtutor183/default/index</div></td></tr><tr><td><div><table></table></div></td></tr></table></div></td></tr></table></div></td></tr><tr><td style="font-weight:bold;vertical-align:top;">meta</td><td style="vertical-align:top;">:</td><td><div><table><tr><td style="font-weight:bold;vertical-align:top;">author</td><td style="vertical-align:top;">:</td><td><div>Your Name &lt;you@example.com&gt;</div></td></tr><tr><td style="font-weight:bold;vertical-align:top;">description</td><td style="vertical-align:top;">:</td><td><div>a cool new app</div></td></tr><tr><td style="font-weight:bold;vertical-align:top;">generator</td><td style="vertical-align:top;">:</td><td><div>Web2py Web Framework</div></td></tr><tr><td style="font-weight:bold;vertical-align:top;">keywords</td><td style="vertical-align:top;">:</td><td><div><table><tr><td><div>web2py</div></td></tr><tr><td><div>python</div></td></tr><tr><td><div>framework</div></td></tr></table></div></td></tr></table></div></td></tr><tr><td style="font-weight:bold;vertical-align:top;">models_to_run</td><td style="vertical-align:top;">:</td><td><div><table><tr><td><div>^\\w+\\.py$</div></td></tr><tr><td><div>^default/\\w+\\.py$</div></td></tr><tr><td><div>^default/index/\\w+\\.py$</div></td></tr></table></div></td></tr><tr><td style="font-weight:bold;vertical-align:top;">postprocessing</td><td style="vertical-align:top;">:</td><td><div><table></table></div></td></tr><tr><td style="font-weight:bold;vertical-align:top;">session_client</td><td style="vertical-align:top;">:</td><td><div>127.0.0.1</div></td></tr><tr><td style="font-weight:bold;vertical-align:top;">session_cookie_compression_level</td><td style="vertical-align:top;">:</td><td><div>None</div></td></tr><tr><td style="font-weight:bold;vertical-align:top;">session_cookie_expires</td><td style="vertical-align:top;">:</td><td><div>None</div></td></tr><tr><td style="font-weight:bold;vertical-align:top;">session_data_name</td><td style="vertical-align:top;">:</td><td><div>session_data_slugtutor183</div></td></tr><tr><td style="font-weight:bold;vertical-align:top;">session_db_record_id</td><td style="vertical-align:top;">:</td><td><div>1L</div></td></tr><tr><td style="font-weight:bold;vertical-align:top;">session_db_table</td><td style="vertical-align:top;">:</td><td><div>&lt;Table web2py_session_slugtutor183 (id, locked, client_ip, created_datetime, modified_datetime, unique_key, session_data)&gt;</div></td></tr><tr><td style="font-weight:bold;vertical-align:top;">session_db_unique_key</td><td style="vertical-align:top;">:</td><td><div>a7428b4d-125e-4f11-97ab-a1faee174c82</div></td></tr><tr><td style="font-weight:bold;vertical-align:top;">session_hash</td><td style="vertical-align:top;">:</td><td><div>33e229f5b6e0d6478ba1a5eddfe296f0</div></td></tr><tr><td style="font-weight:bold;vertical-align:top;">session_id</td><td style="vertical-align:top;">:</td><td><div>1:a7428b4d-125e-4f11-97ab-a1faee174c82</div></td></tr><tr><td style="font-weight:bold;vertical-align:top;">session_id_name</td><td style="vertical-align:top;">:</td><td><div>session_id_slugtutor183</div></td></tr><tr><td style="font-weight:bold;vertical-align:top;">session_masterapp</td><td style="vertical-align:top;">:</td><td><div>slugtutor183</div></td></tr><tr><td style="font-weight:bold;vertical-align:top;">session_new</td><td style="vertical-align:top;">:</td><td><div>False</div></td></tr><tr><td style="font-weight:bold;vertical-align:top;">session_storage_type</td><td style="vertical-align:top;">:</td><td><div>db</div></td></tr><tr><td style="font-weight:bold;vertical-align:top;">status</td><td style="vertical-align:top;">:</td><td><div>200</div></td></tr><tr><td style="font-weight:bold;vertical-align:top;">subtitle</td><td style="vertical-align:top;">:</td><td><div></div></td></tr><tr><td style="font-weight:bold;vertical-align:top;">title</td><td style="vertical-align:top;">:</td><td><div>Slugtutor183</div></td></tr><tr><td style="font-weight:bold;vertical-align:top;">view</td><td style="vertical-align:top;">:</td><td><div>default/index.html</div></td></tr></table></div>'
tRp129
sS'locals'
p130
(dp131
S'Service'
p132
S"<class 'gluon.tools.Service'>"
p133
sS'FORMAT'
p134
S"'%(asctime)s %(levelname)s %(process)s %(thread)s %(funcName)s():%(lineno)d %(message)s'"
p135
sS'PY2'
p136
S'True'
p137
sS'OBJECT'
p138
S"<class 'gluon.html.OBJECT'>"
p139
sS'SQLDB'
p140
S"<class 'pydal.base.DAL'>"
p141
sg122
S"<Storage {'_formkey[tutor/create]': ['0764c04f-3...ate]': ['5781fc5d-d6fa-479c-ad59-56c859d23bad']}>"
p142
sS'LINK'
p143
S"<class 'gluon.html.LINK'>"
p144
sS'BR'
p145
S"<class 'gluon.html.BR'>"
p146
sS'local_import'
p147
S'<function <lambda>>'
p148
sS'OPTGROUP'
p149
S"<class 'gluon.html.OPTGROUP'>"
p150
sS'__package__'
p151
S'None'
p152
sS'PRE'
p153
S"<class 'gluon.html.PRE'>"
p154
sS'IS_INT_IN_RANGE'
p155
S"<class 'gluon.validators.IS_INT_IN_RANGE'>"
p156
sS'to_bytes'
p157
S'<function to_bytes>'
p158
sS'IS_LOWER'
p159
S"<class 'gluon.validators.IS_LOWER'>"
p160
sS'IS_STRONG'
p161
S"<class 'gluon.validators.IS_STRONG'>"
p162
sS'cache'
p163
S'<gluon.cache.Cache object>'
p164
sS'IS_IN_DB'
p165
S"<class 'gluon.validators.IS_IN_DB'>"
p166
sS'TAG'
p167
S'<gluon.html.__TAG__ object>'
p168
sS'SQLField'
p169
S"<class 'pydal.objects.Field'>"
p170
sS'mail'
p171
S'<gluon.tools.Mail object>'
p172
sS'logger'
p173
S'<logging.Logger object>'
p174
sS'BODY'
p175
S"<class 'gluon.html.BODY'>"
p176
sS'IS_DATE_IN_RANGE'
p177
S"<class 'gluon.validators.IS_DATE_IN_RANGE'>"
p178
sS'IFRAME'
p179
S"<class 'gluon.html.IFRAME'>"
p180
sS'URL'
p181
S'<function URL>'
p182
sS'__file__'
p183
S"'/Users/anthonynguyen/Desktop/CMPS-183/web2py/applications/slugtutor183/views/default/index.html'"
p184
sS'db'
p185
S'<DAL uri="sqlite://storage.sqlite">'
p186
sS'auth'
p187
S'<gluon.tools.Auth object>'
p188
sS'P'
S"<class 'gluon.html.P'>"
p189
sS'TFOOT'
p190
S"<class 'gluon.html.TFOOT'>"
p191
sS'iteritems'
p192
S'<function <lambda>>'
p193
sS'XHTML'
p194
S"<class 'gluon.html.XHTML'>"
p195
sS'datetime'
p196
S"<module 'datetime' from '/Users/anthonynguyen/anaconda2/lib/python2.7/lib-dynload/datetime.so'>"
p197
sS'ON'
p198
g137
sS'OL'
p199
S"<class 'gluon.html.OL'>"
p200
sS'TEXTAREA'
p201
S"<class 'gluon.html.TEXTAREA'>"
p202
sS'MENU'
p203
S"<class 'gluon.html.MENU'>"
p204
sS'IS_IMAGE'
p205
S"<class 'gluon.validators.IS_IMAGE'>"
p206
sS'EM'
p207
S"<class 'gluon.html.EM'>"
p208
sS'CODE'
p209
S"<class 'gluon.html.CODE'>"
p210
sS'HTTP'
p211
S"<class 'gluon.http.HTTP'>"
p212
sS'HR'
p213
S"<class 'gluon.html.HR'>"
p214
sS'IS_DATETIME'
p215
S"<class 'gluon.validators.IS_DATETIME'>"
p216
sS'reduce'
p217
S'<built-in function reduce>'
p218
sS'STYLE'
p219
S"<class 'gluon.html.STYLE'>"
p220
sS'LABEL'
p221
S"<class 'gluon.html.LABEL'>"
p222
sS'CLEANUP'
p223
S"<class 'gluon.validators.CLEANUP'>"
p224
sS'plugins'
p225
S'<gluon.tools.PluginManager object>'
p226
sS'SELECT'
p227
S"<class 'gluon.html.SELECT'>"
p228
sS'CENTER'
p229
S"<class 'gluon.html.CENTER'>"
p230
sS'Auth'
p231
S"<class 'gluon.tools.Auth'>"
p232
sS'DEVELOPMENT_MENU'
p233
S'False'
p234
sS'__builtins__'
p235
S"{'ArithmeticError': <type 'exceptions.ArithmeticError'>, 'AssertionError': <type 'exceptions.AssertionError'>, 'AttributeError': <type 'exceptions.AttributeError'>, 'BaseException': <type 'exceptions.BaseException'>, 'BufferError': <type 'exceptions.BufferError'>, 'BytesWarning': <type 'exceptions.BytesWarning'>, 'DeprecationWarning': <type 'exceptions.DeprecationWarning'>, 'EOFError': <type 'exceptions.EOFError'>, 'Ellipsis': Ellipsis, 'EnvironmentError': <type 'exceptions.EnvironmentError'>, ...}"
p236
sS'HTML'
p237
S"<class 'gluon.html.HTML'>"
p238
sS'SQLFORM'
p239
S"<class 'gluon.sqlhtml.SQLFORM'>"
p240
sS'LOAD'
p241
S'<function LOAD>'
p242
sS'redirect'
p243
S'<function redirect>'
p244
sS'FIELDSET'
p245
S"<class 'gluon.html.FIELDSET'>"
p246
sS'IS_EQUAL_TO'
p247
S"<class 'gluon.validators.IS_EQUAL_TO'>"
p248
sS'embed64'
p249
S'<function embed64>'
p250
sS'IS_LIST_OF'
p251
S"<class 'gluon.validators.IS_LIST_OF'>"
p252
sS'key'
p253
S"'request_reset_password'"
p254
sS'INPUT'
p255
S"<class 'gluon.html.INPUT'>"
p256
sS'EMBED'
p257
S"<class 'gluon.html.EMBED'>"
p258
sS'_'
S'<function _>'
p259
sS'logging'
p260
S"<module 'logging' from '/Users/anthonynguyen/anaconda2/lib/python2.7/logging/__init__.pyc'>"
p261
sS'myconf'
p262
S"{'forms': {'formstyle': 'bootstrap3_inline', 'se...': {'names': 'localhost:*, 127.0.0.1:*, *:*, *'}}"
p263
sS'H2'
p264
S"<class 'gluon.html.H2'>"
p265
sS'H3'
p266
S"<class 'gluon.html.H3'>"
p267
sS'AppConfig'
p268
S'<function AppConfig>'
p269
sS'H1'
p270
S"<class 'gluon.html.H1'>"
p271
sS'H6'
p272
S"<class 'gluon.html.H6'>"
p273
sS'H4'
p274
S"<class 'gluon.html.H4'>"
p275
sS'H5'
p276
S"<class 'gluon.html.H5'>"
p277
sS'UL'
p278
S"<class 'gluon.html.UL'>"
p279
sS'IS_UPPER'
p280
S"<class 'gluon.validators.IS_UPPER'>"
p281
sS'xmlescape'
p282
S'<function xmlescape>'
p283
sS'IS_TIME'
p284
S"<class 'gluon.validators.IS_TIME'>"
p285
sS'OPTION'
p286
S"<class 'gluon.html.OPTION'>"
p287
sS'TITLE'
p288
S"<class 'gluon.html.TITLE'>"
p289
sS'CRYPT'
p290
S"<class 'gluon.validators.CRYPT'>"
p291
sS'IS_EMPTY_OR'
p292
S"<class 'gluon.validators.IS_EMPTY_OR'>"
p293
sS'MARKMIN'
p294
S"<class 'gluon.html.MARKMIN'>"
p295
sS'__name__'
p296
S"'__restricted__'"
p297
sS'STRONG'
p298
S"<class 'gluon.html.STRONG'>"
p299
sS'COL'
p300
S"<class 'gluon.html.COL'>"
p301
sS'service'
p302
S'<gluon.tools.Service object>'
p303
sS'SCRIPT'
p304
S"<class 'gluon.html.SCRIPT'>"
p305
sS'TABLE'
p306
S"<class 'gluon.html.TABLE'>"
p307
sS'IS_IPV4'
p308
S"<class 'gluon.validators.IS_IPV4'>"
p309
sS'IS_LENGTH'
p310
S"<class 'gluon.validators.IS_LENGTH'>"
p311
sS'IS_IPV6'
p312
S"<class 'gluon.validators.IS_IPV6'>"
p313
sS'XML'
p314
S"<class 'gluon.html.XML'>"
p315
sS'B'
S"<class 'gluon.html.B'>"
p316
sS'IMG'
p317
S"<class 'gluon.html.IMG'>"
p318
sS'SQLTABLE'
p319
S"<class 'gluon.sqlhtml.SQLTABLE'>"
p320
sS'IS_MATCH'
p321
S"<class 'gluon.validators.IS_MATCH'>"
p322
sS'IS_ALPHANUMERIC'
p323
S"<class 'gluon.validators.IS_ALPHANUMERIC'>"
p324
sS'get_user_email'
p325
S'<function get_user_email>'
p326
sS'SPAN'
p327
S"<class 'gluon.html.SPAN'>"
p328
sS'IS_JSON'
p329
S"<class 'gluon.validators.IS_JSON'>"
p330
sS'IS_IPADDRESS'
p331
S"<class 'gluon.validators.IS_IPADDRESS'>"
p332
sS'IS_SLUG'
p333
S"<class 'gluon.validators.IS_SLUG'>"
p334
sS'BEAUTIFY'
p335
S"<class 'gluon.html.BEAUTIFY'>"
p336
sS'META'
p337
S"<class 'gluon.html.META'>"
p338
sS'BUTTON'
p339
S"<class 'gluon.html.BUTTON'>"
p340
sS'IS_DATE'
p341
S"<class 'gluon.validators.IS_DATE'>"
p342
sS'IS_EMAIL'
p343
S"<class 'gluon.validators.IS_EMAIL'>"
p344
sS'IS_NOT_EMPTY'
p345
S"<class 'gluon.validators.IS_NOT_EMPTY'>"
p346
sS'xrange'
p347
S"<type 'xrange'>"
p348
sS'TBODY'
p349
S"<class 'gluon.html.TBODY'>"
p350
sS'CAT'
p351
S"<class 'gluon.html.CAT'>"
p352
sS'Field'
p353
S"<class 'pydal.objects.Field'>"
p354
sS'IS_LIST_OF_EMAILS'
p355
S"<class 'gluon.validators.IS_LIST_OF_EMAILS'>"
p356
sg58
S"<Storage {'_vars': <Storage {}>, 'function': 'in...top/CMPS-183/web2py/applications/slugtutor183/'}>"
p357
sS'DIV'
p358
S"<class 'gluon.html.DIV'>"
p359
sS'LEGEND'
p360
S"<class 'gluon.html.LEGEND'>"
p361
sS'to_native'
p362
S'<function to_native>'
p363
sS'COLGROUP'
p364
S"<class 'gluon.html.COLGROUP'>"
p365
sS'DAL'
p366
S"<class 'pydal.base.DAL'>"
p367
sS'ASSIGNJS'
p368
S'<function ASSIGNJS>'
p369
sS'TR'
p370
S"<class 'gluon.html.TR'>"
p371
sS'LI'
p372
S"<class 'gluon.html.LI'>"
p373
sS'nav'
p374
S"{'login': '/slugtutor183/default/user/login?_next=/slugtutor183/default/index', 'prefix': 'Welcome ', 'register': '/slugtutor183/default/user/register?_next=/slugtutor183/default/index', 'request_reset_password': '/slugtutor183/default/user/request_reset_password?_next=/slugtutor183/default/index', 'user': None}"
p375
sS'TH'
p376
S"<class 'gluon.html.TH'>"
p377
sS'checklists'
p378
S'<Rows (0)>'
p379
sS'TD'
p380
S"<class 'gluon.html.TD'>"
p381
sS'PluginManager'
p382
S"<class 'gluon.tools.PluginManager'>"
p383
sS'IS_URL'
p384
S"<class 'gluon.validators.IS_URL'>"
p385
sS'A'
S"<class 'gluon.html.A'>"
p386
sS'HEAD'
p387
S"<class 'gluon.html.HEAD'>"
p388
sS'IS_DATETIME_IN_RANGE'
p389
S"<class 'gluon.validators.IS_DATETIME_IN_RANGE'>"
p390
sS'FORM'
p391
S"<class 'gluon.html.FORM'>"
p392
sS'I'
S"<class 'gluon.html.I'>"
p393
sS'sys'
p394
S"<module 'sys' (built-in)>"
p395
sS'IS_NOT_IN_DB'
p396
S"<class 'gluon.validators.IS_NOT_IN_DB'>"
p397
sg128
S"<Storage {'body': <cStringIO.StringO object at 0...y, session_data)>, 'view': 'default/index.html'}>"
p398
sS'THEAD'
p399
S"<class 'gluon.html.THEAD'>"
p400
sS'ANY_OF'
p401
S"<class 'gluon.validators.ANY_OF'>"
p402
sS'IS_NULL_OR'
p403
S"<class 'gluon.validators.IS_EMPTY_OR'>"
p404
sS'IS_FLOAT_IN_RANGE'
p405
S"<class 'gluon.validators.IS_FLOAT_IN_RANGE'>"
p406
sS'IS_EXPR'
p407
S"<class 'gluon.validators.IS_EXPR'>"
p408
sS'T'
S'<gluon.languages.translator object>'
p409
sS'IS_IN_SET'
p410
S"<class 'gluon.validators.IS_IN_SET'>"
p411
sS'IS_UPLOAD_FILENAME'
p412
S"<class 'gluon.validators.IS_UPLOAD_FILENAME'>"
p413
sS'TT'
p414
S"<class 'gluon.html.TT'>"
p415
sS'IS_DECIMAL_IN_RANGE'
p416
S"<class 'gluon.validators.IS_DECIMAL_IN_RANGE'>"
p417
sssS'traceback'
p418
S'Traceback (most recent call last):\n  File "/Users/anthonynguyen/Desktop/CMPS-183/web2py/gluon/restricted.py", line 219, in restricted\n    exec(ccode, environment)\n  File "/Users/anthonynguyen/Desktop/CMPS-183/web2py/applications/slugtutor183/views/default/index.html", line 72, in <module>\nNameError: name \'message\' is not defined\n'
p419
s.